target datalayout = "e-m:e-p270:32:32-p271:32:32-p272:64:64-i64:64-i128:128-f80:128-n8:16:32:64-S128"
target triple = "x86_64-pc-linux-gnu"

%"class.std::__shared_count" = type { ptr }
%"class.std::shared_ptr.43" = type { %"class.std::__shared_ptr.44" }
%"class.std::__shared_ptr.44" = type { ptr, %"class.std::__shared_count" }
%"class.dropbox::oxygen::nn.42" = type { %"class.std::shared_ptr.43" }
%"class.dropbox::oxygen::nn.264" = type { %"class.std::shared_ptr.265" }
%"class.std::shared_ptr.265" = type { %"class.std::__shared_ptr.266" }
%"class.std::__shared_ptr.266" = type { ptr, %"class.std::__shared_count" }
%"struct.std::_Vector_base.277" = type { %"struct.std::_Vector_base<dropbox::oxygen::nn<std::shared_ptr<osgeo::proj::cs::CoordinateSystemAxis>>, std::allocator<dropbox::oxygen::nn<std::shared_ptr<osgeo::proj::cs::CoordinateSystemAxis>>>>::_Vector_impl" }
%"struct.std::_Vector_base<dropbox::oxygen::nn<std::shared_ptr<osgeo::proj::cs::CoordinateSystemAxis>>, std::allocator<dropbox::oxygen::nn<std::shared_ptr<osgeo::proj::cs::CoordinateSystemAxis>>>>::_Vector_impl" = type { %"struct.std::_Vector_base<dropbox::oxygen::nn<std::shared_ptr<osgeo::proj::cs::CoordinateSystemAxis>>, std::allocator<dropbox::oxygen::nn<std::shared_ptr<osgeo::proj::cs::CoordinateSystemAxis>>>>::_Vector_impl_data" }
%"struct.std::_Vector_base<dropbox::oxygen::nn<std::shared_ptr<osgeo::proj::cs::CoordinateSystemAxis>>, std::allocator<dropbox::oxygen::nn<std::shared_ptr<osgeo::proj::cs::CoordinateSystemAxis>>>>::_Vector_impl_data" = type { ptr, ptr, ptr }

@_ZTIN5osgeo4proj9operation16InvalidOperationE = external constant ptr
@_ZTIN5osgeo4proj3crs11GeodeticCRSE = external constant ptr
@_ZTIN5osgeo4proj3crs13GeographicCRSE = external constant ptr
@_ZTIN5osgeo4proj3crs3CRSE = external constant ptr
@.str.23 = private unnamed_addr constant [22 x i8] c"Inconsistent CRS type\00", align 1

; Function Attrs: mustprogress nounwind uwtable
define linkonce_odr noundef ptr @_ZNKSt12__shared_ptrIN5osgeo4proj2cs16CoordinateSystemELN9__gnu_cxx12_Lock_policyE2EE3getEv(ptr noundef nonnull align 8 dereferenceable(16) %0) #2 comdat align 2 {
  %2 = alloca ptr, align 8
  store ptr %0, ptr %2, align 8
  %3 = load ptr, ptr %2, align 8
  %4 = getelementptr inbounds %"class.std::__shared_ptr.266", ptr %3, i32 0, i32 0
  %5 = load ptr, ptr %4, align 8
  ret ptr %5
}

; Function Attrs: mustprogress nounwind uwtable
define linkonce_odr noundef ptr @_ZNKSt19__shared_ptr_accessIN5osgeo4proj2cs16CoordinateSystemELN9__gnu_cxx12_Lock_policyE2ELb0ELb0EE6_M_getEv(ptr noundef nonnull align 1 dereferenceable(1) %0) #2 comdat align 2 {
  %2 = alloca ptr, align 8
  store ptr %0, ptr %2, align 8
  %3 = load ptr, ptr %2, align 8
  %4 = call noundef ptr @_ZNKSt12__shared_ptrIN5osgeo4proj2cs16CoordinateSystemELN9__gnu_cxx12_Lock_policyE2EE3getEv(ptr noundef nonnull align 8 dereferenceable(16) %3) #16
  ret ptr %4
}

; Function Attrs: mustprogress nounwind uwtable
define linkonce_odr noundef nonnull align 8 dereferenceable(56) ptr @_ZNKSt19__shared_ptr_accessIN5osgeo4proj2cs16CoordinateSystemELN9__gnu_cxx12_Lock_policyE2ELb0ELb0EEdeEv(ptr noundef nonnull align 1 dereferenceable(1) %0) #2 comdat align 2 {
  %2 = alloca ptr, align 8
  store ptr %0, ptr %2, align 8
  %3 = load ptr, ptr %2, align 8
  br label %4

4:                                                ; preds = %1
  br label %5

5:                                                ; preds = %4
  br label %6

6:                                                ; preds = %5
  %7 = call noundef ptr @_ZNKSt19__shared_ptr_accessIN5osgeo4proj2cs16CoordinateSystemELN9__gnu_cxx12_Lock_policyE2ELb0ELb0EE6_M_getEv(ptr noundef nonnull align 1 dereferenceable(1) %3) #16
  ret ptr %7
}

; Function Attrs: mustprogress nounwind uwtable
define linkonce_odr noundef ptr @_ZNKSt12__shared_ptrIN5osgeo4proj3crs3CRSELN9__gnu_cxx12_Lock_policyE2EE3getEv(ptr noundef nonnull align 8 dereferenceable(16) %0) #2 comdat align 2 {
  %2 = alloca ptr, align 8
  store ptr %0, ptr %2, align 8
  %3 = load ptr, ptr %2, align 8
  %4 = getelementptr inbounds %"class.std::__shared_ptr.44", ptr %3, i32 0, i32 0
  %5 = load ptr, ptr %4, align 8
  ret ptr %5
}

; Function Attrs: mustprogress nounwind uwtable
define linkonce_odr hidden noundef i64 @_ZNKSt6vectorIN7dropbox6oxygen2nnISt10shared_ptrIN5osgeo4proj2cs20CoordinateSystemAxisEEEESaIS9_EE4sizeEv(ptr noundef nonnull align 8 dereferenceable(24) %0) #2 comdat align 2 {
  %2 = alloca ptr, align 8
  store ptr %0, ptr %2, align 8
  %3 = load ptr, ptr %2, align 8
  %4 = getelementptr inbounds %"struct.std::_Vector_base.277", ptr %3, i32 0, i32 0
  %5 = getelementptr inbounds %"struct.std::_Vector_base<dropbox::oxygen::nn<std::shared_ptr<osgeo::proj::cs::CoordinateSystemAxis>>, std::allocator<dropbox::oxygen::nn<std::shared_ptr<osgeo::proj::cs::CoordinateSystemAxis>>>>::_Vector_impl_data", ptr %4, i32 0, i32 1
  %6 = load ptr, ptr %5, align 8
  %7 = getelementptr inbounds %"struct.std::_Vector_base.277", ptr %3, i32 0, i32 0
  %8 = getelementptr inbounds %"struct.std::_Vector_base<dropbox::oxygen::nn<std::shared_ptr<osgeo::proj::cs::CoordinateSystemAxis>>, std::allocator<dropbox::oxygen::nn<std::shared_ptr<osgeo::proj::cs::CoordinateSystemAxis>>>>::_Vector_impl_data", ptr %7, i32 0, i32 0
  %9 = load ptr, ptr %8, align 8
  %10 = ptrtoint ptr %6 to i64
  %11 = ptrtoint ptr %9 to i64
  %12 = sub i64 %10, %11
  %13 = sdiv exact i64 %12, 16
  ret i64 %13
}

; Function Attrs: mustprogress nounwind uwtable
define linkonce_odr hidden noundef ptr @_ZNK7dropbox6oxygen2nnISt10shared_ptrIN5osgeo4proj2cs16CoordinateSystemEEEptEv(ptr noundef nonnull align 8 dereferenceable(16) %0) #2 comdat align 2 {
  %2 = alloca ptr, align 8
  store ptr %0, ptr %2, align 8
  %3 = load ptr, ptr %2, align 8
  %4 = getelementptr inbounds %"class.dropbox::oxygen::nn.264", ptr %3, i32 0, i32 0
  %5 = call noundef nonnull align 8 dereferenceable(56) ptr @_ZNKSt19__shared_ptr_accessIN5osgeo4proj2cs16CoordinateSystemELN9__gnu_cxx12_Lock_policyE2ELb0ELb0EEdeEv(ptr noundef nonnull align 1 dereferenceable(1) %4) #16
  ret ptr %5
}

; Function Attrs: mustprogress nounwind uwtable
define linkonce_odr hidden noundef ptr @_ZNK7dropbox6oxygen2nnISt10shared_ptrIN5osgeo4proj3crs3CRSEEE3getIS7_EEPS6_v(ptr noundef nonnull align 8 dereferenceable(16) %0) #2 comdat align 2 {
  %2 = alloca ptr, align 8
  store ptr %0, ptr %2, align 8
  %3 = load ptr, ptr %2, align 8
  %4 = getelementptr inbounds %"class.dropbox::oxygen::nn.42", ptr %3, i32 0, i32 0
  %5 = call noundef ptr @_ZNKSt12__shared_ptrIN5osgeo4proj3crs3CRSELN9__gnu_cxx12_Lock_policyE2EE3getEv(ptr noundef nonnull align 8 dereferenceable(16) %4) #16
  ret ptr %5
}

; Function Attrs: mustprogress uwtable
define internal void @_ZN5osgeo4proj9operationL21getTransformationTypeERKN7dropbox6oxygen2nnISt10shared_ptrINS0_3crs3CRSEEEESB_RbSC_SC_(ptr noundef nonnull align 8 dereferenceable(16) %0, ptr noundef nonnull align 8 dereferenceable(16) %1, ptr noundef nonnull align 1 dereferenceable(1) %2, ptr noundef nonnull align 1 dereferenceable(1) %3, ptr noundef nonnull align 1 dereferenceable(1) %4) #0 personality ptr @__gxx_personality_v0 {
  %6 = alloca ptr, align 8
  %7 = alloca ptr, align 8
  %8 = alloca ptr, align 8
  %9 = alloca ptr, align 8
  %10 = alloca ptr, align 8
  %11 = alloca ptr, align 8
  %12 = alloca ptr, align 8
  %13 = alloca ptr, align 8
  %14 = alloca ptr, align 8
  %15 = alloca ptr, align 8
  %16 = alloca i32, align 4
  %17 = alloca i64, align 8
  %18 = alloca i64, align 8
  store ptr %0, ptr %6, align 8
  store ptr %1, ptr %7, align 8
  store ptr %2, ptr %8, align 8
  store ptr %3, ptr %9, align 8
  store ptr %4, ptr %10, align 8
  %19 = load ptr, ptr %6, align 8
  %20 = call noundef ptr @_ZNK7dropbox6oxygen2nnISt10shared_ptrIN5osgeo4proj3crs3CRSEEE3getIS7_EEPS6_v(ptr noundef nonnull align 8 dereferenceable(16) %19)
  %21 = icmp eq ptr %20, null
  br i1 %21, label %24, label %22

22:                                               ; preds = %5
  %23 = call ptr @__dynamic_cast(ptr %20, ptr @_ZTIN5osgeo4proj3crs3CRSE, ptr @_ZTIN5osgeo4proj3crs11GeodeticCRSE, i64 -1) #16
  br label %25

24:                                               ; preds = %5
  br label %25

25:                                               ; preds = %24, %22
  %26 = phi ptr [ %23, %22 ], [ null, %24 ]
  store ptr %26, ptr %11, align 8
  %27 = load ptr, ptr %7, align 8
  %28 = call noundef ptr @_ZNK7dropbox6oxygen2nnISt10shared_ptrIN5osgeo4proj3crs3CRSEEE3getIS7_EEPS6_v(ptr noundef nonnull align 8 dereferenceable(16) %27)
  %29 = icmp eq ptr %28, null
  br i1 %29, label %32, label %30

30:                                               ; preds = %25
  %31 = call ptr @__dynamic_cast(ptr %28, ptr @_ZTIN5osgeo4proj3crs3CRSE, ptr @_ZTIN5osgeo4proj3crs11GeodeticCRSE, i64 -1) #16
  br label %33

32:                                               ; preds = %25
  br label %33

33:                                               ; preds = %32, %30
  %34 = phi ptr [ %31, %30 ], [ null, %32 ]
  store ptr %34, ptr %12, align 8
  %35 = load ptr, ptr %11, align 8
  %36 = icmp ne ptr %35, null
  br i1 %36, label %37, label %46

37:                                               ; preds = %33
  %38 = load ptr, ptr %11, align 8
  %39 = call noundef zeroext i1 @_ZNK5osgeo4proj3crs11GeodeticCRS12isGeocentricEv(ptr noundef nonnull align 8 dereferenceable(16) %38) #9
  br i1 %39, label %40, label %46

40:                                               ; preds = %37
  %41 = load ptr, ptr %12, align 8
  %42 = icmp ne ptr %41, null
  br i1 %42, label %43, label %46

43:                                               ; preds = %40
  %44 = load ptr, ptr %12, align 8
  %45 = call noundef zeroext i1 @_ZNK5osgeo4proj3crs11GeodeticCRS12isGeocentricEv(ptr noundef nonnull align 8 dereferenceable(16) %44) #9
  br label %46

46:                                               ; preds = %43, %40, %37, %33
  %47 = phi i1 [ false, %40 ], [ false, %37 ], [ false, %33 ], [ %45, %43 ]
  %48 = load ptr, ptr %8, align 8
  %49 = zext i1 %47 to i8
  store i8 %49, ptr %48, align 1
  %50 = load ptr, ptr %8, align 8
  %51 = load i8, ptr %50, align 1
  %52 = trunc i8 %51 to i1
  br i1 %52, label %53, label %56

53:                                               ; preds = %46
  %54 = load ptr, ptr %9, align 8
  store i8 0, ptr %54, align 1
  %55 = load ptr, ptr %10, align 8
  store i8 0, ptr %55, align 1
  br label %139

56:                                               ; preds = %46
  %57 = load ptr, ptr %8, align 8
  store i8 0, ptr %57, align 1
  %58 = load ptr, ptr %6, align 8
  %59 = call noundef ptr @_ZNK7dropbox6oxygen2nnISt10shared_ptrIN5osgeo4proj3crs3CRSEEE3getIS7_EEPS6_v(ptr noundef nonnull align 8 dereferenceable(16) %58)
  %60 = icmp eq ptr %59, null
  br i1 %60, label %63, label %61

61:                                               ; preds = %56
  %62 = call ptr @__dynamic_cast(ptr %59, ptr @_ZTIN5osgeo4proj3crs3CRSE, ptr @_ZTIN5osgeo4proj3crs13GeographicCRSE, i64 -1) #16
  br label %64

63:                                               ; preds = %56
  br label %64

64:                                               ; preds = %63, %61
  %65 = phi ptr [ %62, %61 ], [ null, %63 ]
  store ptr %65, ptr %13, align 8
  %66 = load ptr, ptr %7, align 8
  %67 = call noundef ptr @_ZNK7dropbox6oxygen2nnISt10shared_ptrIN5osgeo4proj3crs3CRSEEE3getIS7_EEPS6_v(ptr noundef nonnull align 8 dereferenceable(16) %66)
  %68 = icmp eq ptr %67, null
  br i1 %68, label %71, label %69

69:                                               ; preds = %64
  %70 = call ptr @__dynamic_cast(ptr %67, ptr @_ZTIN5osgeo4proj3crs3CRSE, ptr @_ZTIN5osgeo4proj3crs13GeographicCRSE, i64 -1) #16
  br label %72

71:                                               ; preds = %64
  br label %72

72:                                               ; preds = %71, %69
  %73 = phi ptr [ %70, %69 ], [ null, %71 ]
  store ptr %73, ptr %14, align 8
  %74 = load ptr, ptr %13, align 8
  %75 = icmp ne ptr %74, null
  br i1 %75, label %82, label %76

76:                                               ; preds = %72
  %77 = load ptr, ptr %11, align 8
  %78 = icmp ne ptr %77, null
  br i1 %78, label %79, label %91

79:                                               ; preds = %76
  %80 = load ptr, ptr %11, align 8
  %81 = call noundef zeroext i1 @_ZNK5osgeo4proj3crs11GeodeticCRS25isSphericalPlanetocentricEv(ptr noundef nonnull align 8 dereferenceable(16) %80) #9
  br i1 %81, label %82, label %91

82:                                               ; preds = %79, %72
  %83 = load ptr, ptr %14, align 8
  %84 = icmp ne ptr %83, null
  br i1 %84, label %98, label %85

85:                                               ; preds = %82
  %86 = load ptr, ptr %12, align 8
  %87 = icmp ne ptr %86, null
  br i1 %87, label %88, label %91

88:                                               ; preds = %85
  %89 = load ptr, ptr %12, align 8
  %90 = call noundef zeroext i1 @_ZNK5osgeo4proj3crs11GeodeticCRS25isSphericalPlanetocentricEv(ptr noundef nonnull align 8 dereferenceable(16) %89) #9
  br i1 %90, label %98, label %91

91:                                               ; preds = %88, %85, %79, %76
  %92 = call ptr @__cxa_allocate_exception(i64 40) #16
  invoke void @_ZN5osgeo4proj9operation16InvalidOperationC1EPKc(ptr noundef nonnull align 8 dereferenceable(40) %92, ptr noundef @.str.23)
          to label %93 unwind label %94

93:                                               ; preds = %91
  call void @__cxa_throw(ptr %92, ptr @_ZTIN5osgeo4proj9operation16InvalidOperationE, ptr @_ZN5osgeo4proj9operation16InvalidOperationD1Ev) #20
  unreachable

94:                                               ; preds = %91
  %95 = landingpad { ptr, i32 }
          cleanup
  %96 = extractvalue { ptr, i32 } %95, 0
  store ptr %96, ptr %15, align 8
  %97 = extractvalue { ptr, i32 } %95, 1
  store i32 %97, ptr %16, align 4
  call void @__cxa_free_exception(ptr %92) #16
  br label %140

98:                                               ; preds = %88, %82
  %99 = load ptr, ptr %11, align 8
  %100 = load ptr, ptr %99, align 8
  %101 = getelementptr i8, ptr %100, i64 -24
  %102 = load i64, ptr %101, align 8
  %103 = getelementptr inbounds i8, ptr %99, i64 %102
  %104 = call noundef nonnull align 8 dereferenceable(16) ptr @_ZNK5osgeo4proj3crs9SingleCRS16coordinateSystemEv(ptr noundef nonnull align 8 dereferenceable(72) %103) #9
  %105 = call noundef ptr @_ZNK7dropbox6oxygen2nnISt10shared_ptrIN5osgeo4proj2cs16CoordinateSystemEEEptEv(ptr noundef nonnull align 8 dereferenceable(16) %104)
  %106 = call noundef nonnull align 8 dereferenceable(24) ptr @_ZNK5osgeo4proj2cs16CoordinateSystem8axisListEv(ptr noundef nonnull align 8 dereferenceable(56) %105) #9
  %107 = call noundef i64 @_ZNKSt6vectorIN7dropbox6oxygen2nnISt10shared_ptrIN5osgeo4proj2cs20CoordinateSystemAxisEEEESaIS9_EE4sizeEv(ptr noundef nonnull align 8 dereferenceable(24) %106) #16
  store i64 %107, ptr %17, align 8
  %108 = load ptr, ptr %12, align 8
  %109 = load ptr, ptr %108, align 8
  %110 = getelementptr i8, ptr %109, i64 -24
  %111 = load i64, ptr %110, align 8
  %112 = getelementptr inbounds i8, ptr %108, i64 %111
  %113 = call noundef nonnull align 8 dereferenceable(16) ptr @_ZNK5osgeo4proj3crs9SingleCRS16coordinateSystemEv(ptr noundef nonnull align 8 dereferenceable(72) %112) #9
  %114 = call noundef ptr @_ZNK7dropbox6oxygen2nnISt10shared_ptrIN5osgeo4proj2cs16CoordinateSystemEEEptEv(ptr noundef nonnull align 8 dereferenceable(16) %113)
  %115 = call noundef nonnull align 8 dereferenceable(24) ptr @_ZNK5osgeo4proj2cs16CoordinateSystem8axisListEv(ptr noundef nonnull align 8 dereferenceable(56) %114) #9
  %116 = call noundef i64 @_ZNKSt6vectorIN7dropbox6oxygen2nnISt10shared_ptrIN5osgeo4proj2cs20CoordinateSystemAxisEEEESaIS9_EE4sizeEv(ptr noundef nonnull align 8 dereferenceable(24) %115) #16
  store i64 %116, ptr %18, align 8
  %117 = load i64, ptr %17, align 8
  %118 = icmp eq i64 %117, 2
  br i1 %118, label %119, label %122

119:                                              ; preds = %98
  %120 = load i64, ptr %18, align 8
  %121 = icmp eq i64 %120, 2
  br label %122

122:                                              ; preds = %119, %98
  %123 = phi i1 [ false, %98 ], [ %121, %119 ]
  %124 = load ptr, ptr %9, align 8
  %125 = zext i1 %123 to i8
  store i8 %125, ptr %124, align 1
  %126 = load ptr, ptr %9, align 8
  %127 = load i8, ptr %126, align 1
  %128 = trunc i8 %127 to i1
  br i1 %128, label %135, label %129

129:                                              ; preds = %122
  %130 = load i64, ptr %17, align 8
  %131 = icmp uge i64 %130, 2
  br i1 %131, label %132, label %135

132:                                              ; preds = %129
  %133 = load i64, ptr %18, align 8
  %134 = icmp uge i64 %133, 2
  br label %135

135:                                              ; preds = %132, %129, %122
  %136 = phi i1 [ false, %129 ], [ false, %122 ], [ %134, %132 ]
  %137 = load ptr, ptr %10, align 8
  %138 = zext i1 %136 to i8
  store i8 %138, ptr %137, align 1
  br label %139

139:                                              ; preds = %135, %53
  ret void

140:                                              ; preds = %94
  %141 = load ptr, ptr %15, align 8
  %142 = load i32, ptr %16, align 4
  %143 = insertvalue { ptr, i32 } poison, ptr %141, 0
  %144 = insertvalue { ptr, i32 } %143, i32 %142, 1
  resume { ptr, i32 } %144
}