; Function Attrs: mustprogress uwtable
define internal fastcc void @_ZN5osgeo4proj9operationL21getTransformationTypeERKN7dropbox6oxygen2nnISt10shared_ptrINS0_3crs3CRSEEEESB_RbSC_SC_(ptr nocapture noundef nonnull readonly align 8 dereferenceable(16) %0, ptr nocapture noundef nonnull readonly align 8 dereferenceable(16) %1, ptr nocapture noundef nonnull writeonly align 1 dereferenceable(1) %2, ptr nocapture noundef nonnull writeonly align 1 dereferenceable(1) %3, ptr nocapture noundef nonnull writeonly align 1 dereferenceable(1) %4) unnamed_addr #0 personality ptr @__gxx_personality_v0 {
  %6 = load ptr, ptr %0, align 8
  %7 = icmp eq ptr %6, null
  br i1 %7, label %10, label %8

8:                                                ; preds = %5
  %9 = tail call ptr @__dynamic_cast(ptr nonnull %6, ptr nonnull @_ZTIN5osgeo4proj3crs3CRSE, ptr nonnull @_ZTIN5osgeo4proj3crs11GeodeticCRSE, i64 -1) #21
  br label %10

10:                                               ; preds = %5, %8
  %11 = phi ptr [ %9, %8 ], [ null, %5 ]
  %12 = load ptr, ptr %1, align 8
  %13 = icmp eq ptr %12, null
  br i1 %13, label %16, label %14

14:                                               ; preds = %10
  %15 = tail call ptr @__dynamic_cast(ptr nonnull %12, ptr nonnull @_ZTIN5osgeo4proj3crs3CRSE, ptr nonnull @_ZTIN5osgeo4proj3crs11GeodeticCRSE, i64 -1) #21
  br label %16

16:                                               ; preds = %10, %14
  %17 = phi ptr [ %15, %14 ], [ null, %10 ]
  %.not38 = icmp eq ptr %11, null
  br i1 %.not38, label %.critedge, label %18

18:                                               ; preds = %16
  %19 = tail call noundef zeroext i1 @_ZNK5osgeo4proj3crs11GeodeticCRS12isGeocentricEv(ptr noundef nonnull align 8 dereferenceable(16) %11) #25
  %20 = icmp ne ptr %17, null
  %or.cond = select i1 %19, i1 %20, i1 false
  br i1 %or.cond, label %21, label %.critedge

21:                                               ; preds = %18
  %22 = tail call noundef zeroext i1 @_ZNK5osgeo4proj3crs11GeodeticCRS12isGeocentricEv(ptr noundef nonnull align 8 dereferenceable(16) %17) #25
  %23 = zext i1 %22 to i8
  store i8 %23, ptr %2, align 1
  br i1 %22, label %24, label %25

24:                                               ; preds = %21
  store i8 0, ptr %3, align 1
  br label %84

.critedge:                                        ; preds = %16, %18
  store i8 0, ptr %2, align 1
  br label %25

25:                                               ; preds = %.critedge, %21
  store i8 0, ptr %2, align 1
  %26 = load ptr, ptr %0, align 8
  %27 = icmp eq ptr %26, null
  br i1 %27, label %31, label %28

28:                                               ; preds = %25
  %29 = tail call ptr @__dynamic_cast(ptr nonnull %26, ptr nonnull @_ZTIN5osgeo4proj3crs3CRSE, ptr nonnull @_ZTIN5osgeo4proj3crs13GeographicCRSE, i64 -1) #21
  %30 = icmp eq ptr %29, null
  br label %31

31:                                               ; preds = %25, %28
  %.not39 = phi i1 [ %30, %28 ], [ true, %25 ]
  %32 = load ptr, ptr %1, align 8
  %33 = icmp eq ptr %32, null
  br i1 %33, label %37, label %34

34:                                               ; preds = %31
  %35 = tail call ptr @__dynamic_cast(ptr nonnull %32, ptr nonnull @_ZTIN5osgeo4proj3crs3CRSE, ptr nonnull @_ZTIN5osgeo4proj3crs13GeographicCRSE, i64 -1) #21
  %36 = icmp eq ptr %35, null
  br label %37

37:                                               ; preds = %31, %34
  %.not40 = phi i1 [ %36, %34 ], [ true, %31 ]
  br i1 %.not39, label %38, label %41

38:                                               ; preds = %37
  br i1 %.not38, label %45, label %39

39:                                               ; preds = %38
  %40 = tail call noundef zeroext i1 @_ZNK5osgeo4proj3crs11GeodeticCRS25isSphericalPlanetocentricEv(ptr noundef nonnull align 8 dereferenceable(16) %11) #25
  br i1 %40, label %41, label %45

41:                                               ; preds = %39, %37
  br i1 %.not40, label %42, label %50

42:                                               ; preds = %41
  %.not41 = icmp eq ptr %17, null
  br i1 %.not41, label %45, label %43

43:                                               ; preds = %42
  %44 = tail call noundef zeroext i1 @_ZNK5osgeo4proj3crs11GeodeticCRS25isSphericalPlanetocentricEv(ptr noundef nonnull align 8 dereferenceable(16) %17) #25
  br i1 %44, label %50, label %45

45:                                               ; preds = %43, %42, %39, %38
  %46 = tail call ptr @__cxa_allocate_exception(i64 40) #21
  invoke void @_ZN5osgeo4proj9operation16InvalidOperationC1EPKc(ptr noundef nonnull align 8 dereferenceable(40) %46, ptr noundef nonnull @.str.23)
          to label %47 unwind label %48

47:                                               ; preds = %45
  tail call void @__cxa_throw(ptr nonnull %46, ptr nonnull @_ZTIN5osgeo4proj9operation16InvalidOperationE, ptr nonnull @_ZN5osgeo4proj9operation16InvalidOperationD1Ev) #23
  unreachable

48:                                               ; preds = %45
  %49 = landingpad { ptr, i32 }
          cleanup
  tail call void @__cxa_free_exception(ptr %46) #21
  resume { ptr, i32 } %49

50:                                               ; preds = %43, %41
  %51 = load ptr, ptr %11, align 8
  %52 = getelementptr i8, ptr %51, i64 -24
  %53 = load i64, ptr %52, align 8
  %54 = getelementptr inbounds i8, ptr %11, i64 %53
  %55 = tail call noundef nonnull align 8 dereferenceable(16) ptr @_ZNK5osgeo4proj3crs9SingleCRS16coordinateSystemEv(ptr noundef nonnull align 8 dereferenceable(72) %54) #25
  %56 = load ptr, ptr %55, align 8
  %57 = tail call noundef nonnull align 8 dereferenceable(24) ptr @_ZNK5osgeo4proj2cs16CoordinateSystem8axisListEv(ptr noundef nonnull align 8 dereferenceable(56) %56) #25
  %58 = getelementptr inbounds i8, ptr %57, i64 8
  %59 = load ptr, ptr %58, align 8
  %60 = load ptr, ptr %57, align 8
  %61 = ptrtoint ptr %59 to i64
  %62 = ptrtoint ptr %60 to i64
  %63 = sub i64 %61, %62
  %64 = load ptr, ptr %17, align 8
  %65 = getelementptr i8, ptr %64, i64 -24
  %66 = load i64, ptr %65, align 8
  %67 = getelementptr inbounds i8, ptr %17, i64 %66
  %68 = tail call noundef nonnull align 8 dereferenceable(16) ptr @_ZNK5osgeo4proj3crs9SingleCRS16coordinateSystemEv(ptr noundef nonnull align 8 dereferenceable(72) %67) #25
  %69 = load ptr, ptr %68, align 8
  %70 = tail call noundef nonnull align 8 dereferenceable(24) ptr @_ZNK5osgeo4proj2cs16CoordinateSystem8axisListEv(ptr noundef nonnull align 8 dereferenceable(56) %69) #25
  %71 = getelementptr inbounds i8, ptr %70, i64 8
  %72 = load ptr, ptr %71, align 8
  %73 = load ptr, ptr %70, align 8
  %74 = ptrtoint ptr %72 to i64
  %75 = ptrtoint ptr %73 to i64
  %76 = sub i64 %74, %75
  %77 = icmp eq i64 %63, 32
  %78 = icmp eq i64 %76, 32
  %79 = and i1 %77, %78
  %80 = zext i1 %79 to i8
  store i8 %80, ptr %3, align 1
  %81 = icmp ugt i64 %63, 16
  %or.cond3 = xor i1 %81, %79
  %82 = icmp ugt i64 %76, 16
  %narrow = select i1 %or.cond3, i1 %82, i1 false
  %83 = zext i1 %narrow to i8
  br label %84

84:                                               ; preds = %50, %24
  %storemerge = phi i8 [ %83, %50 ], [ 0, %24 ]
  store i8 %storemerge, ptr %4, align 1
  ret void
}